; Function Attrs: mustprogress uwtable
define hidden void @_ZN4cvc58internal6theory18PartitionGenerator16stopPartitioningEv(ptr noalias sret(%"class.cvc5::internal::NodeTemplate") align 8 %agg.result, ptr nocapture noundef nonnull writeonly align 8 dereferenceable(456) %this) local_unnamed_addr #3 align 2 {
entry:
  %ref.tmp = alloca i8, align 1
  %d_emittedAllPartitions = getelementptr inbounds i8, ptr %this, i64 297
  store i8 1, ptr %d_emittedAllPartitions, align 1
  %call = tail call noundef ptr @_ZN4cvc58internal11NodeManager9currentNMEv()
  store i8 0, ptr %ref.tmp, align 1
  call void @_ZN4cvc58internal11NodeManager7mkConstIbEENS0_12NodeTemplateILb1EEERKT_(ptr sret(%"class.cvc5::internal::NodeTemplate") align 8 %agg.result, ptr noundef nonnull align 8 dereferenceable(3360) %call, ptr noundef nonnull align 1 dereferenceable(1) %ref.tmp)
  ret void
}